target datalayout = "e-m:e-p270:32:32-p271:32:32-p272:64:64-i64:64-i128:128-f80:128-n8:16:32:64-S128"
target triple = "x86_64-pc-linux-gnu"

%struct._oid_alternative = type { ptr, i32, [2 x i32] }

@.str.287 = private unnamed_addr constant [75 x i8] c"asn1_expect_hash_algo: Failed to find valid OID alternative for hash algo\0A\00", align 1

; Function Attrs: nounwind uwtable
define internal i32 @asn1_expect_hash_algo(ptr noundef %0, ptr noundef %1, ptr noundef %2, ptr noundef %3, ptr noundef %4) #0 {
  %6 = alloca i32, align 4
  %7 = alloca ptr, align 8
  %8 = alloca ptr, align 8
  %9 = alloca ptr, align 8
  %10 = alloca ptr, align 8
  %11 = alloca ptr, align 8
  %12 = alloca ptr, align 8
  %13 = alloca i32, align 4
  store ptr %0, ptr %7, align 8, !tbaa !3
  store ptr %1, ptr %8, align 8, !tbaa !62
  store ptr %2, ptr %9, align 8, !tbaa !63
  store ptr %3, ptr %10, align 8, !tbaa !62
  store ptr %4, ptr %11, align 8, !tbaa !63
  call void @llvm.lifetime.start.p0(i64 8, ptr %12) #8
  %14 = load ptr, ptr %7, align 8, !tbaa !3
  %15 = load ptr, ptr %8, align 8, !tbaa !62
  %16 = load ptr, ptr %9, align 8, !tbaa !63
  %17 = call ptr @asn1_expect_algo_multi(ptr noundef %14, ptr noundef %15, ptr noundef %16, ptr noundef @asn1_expect_hash_algo.alts, i32 noundef 10)
  store ptr %17, ptr %12, align 8, !tbaa !85
  %18 = load ptr, ptr %12, align 8, !tbaa !85
  %19 = icmp eq ptr null, %18
  br i1 %19, label %20, label %21

20:                                               ; preds = %5
  call void (ptr, ...) @cli_dbgmsg(ptr noundef @.str.287)
  store i32 1, ptr %6, align 4
  store i32 1, ptr %13, align 4
  br label %32

21:                                               ; preds = %5
  %22 = load ptr, ptr %12, align 8, !tbaa !85
  %23 = getelementptr inbounds nuw %struct._oid_alternative, ptr %22, i32 0, i32 2
  %24 = getelementptr inbounds [2 x i32], ptr %23, i64 0, i64 0
  %25 = load i32, ptr %24, align 4, !tbaa !20
  %26 = load ptr, ptr %10, align 8, !tbaa !62
  store i32 %25, ptr %26, align 4, !tbaa !20
  %27 = load ptr, ptr %12, align 8, !tbaa !85
  %28 = getelementptr inbounds nuw %struct._oid_alternative, ptr %27, i32 0, i32 2
  %29 = getelementptr inbounds [2 x i32], ptr %28, i64 0, i64 1
  %30 = load i32, ptr %29, align 4, !tbaa !20
  %31 = load ptr, ptr %11, align 8, !tbaa !63
  store i32 %30, ptr %31, align 4, !tbaa !20
  store i32 0, ptr %6, align 4
  store i32 1, ptr %13, align 4
  br label %32

32:                                               ; preds = %21, %20
  call void @llvm.lifetime.end.p0(i64 8, ptr %12) #8
  %33 = load i32, ptr %6, align 4
  ret i32 %33
}