; Function Attrs: nounwind uwtable
define internal fastcc range(i32 0, 2) i32 @asn1_expect_hash_algo(ptr noundef %0, ptr noundef nonnull captures(none) %1, ptr noundef nonnull captures(none) %2, ptr noundef nonnull writeonly captures(none) %3, ptr noundef nonnull writeonly captures(none) %4) unnamed_addr #0 {
  %6 = tail call fastcc ptr @asn1_expect_algo_multi(ptr noundef %0, ptr noundef %1, ptr noundef %2, ptr noundef nonnull @asn1_expect_hash_algo.alts, i32 noundef 10)
  %7 = icmp eq ptr %6, null
  br i1 %7, label %8, label %9

8:                                                ; preds = %5
  tail call void (ptr, ...) @cli_dbgmsg(ptr noundef nonnull @.str.287) #11
  br label %14

9:                                                ; preds = %5
  %10 = getelementptr inbounds nuw i8, ptr %6, i64 12
  %11 = load i32, ptr %10, align 4, !tbaa !17
  store i32 %11, ptr %3, align 4, !tbaa !17
  %12 = getelementptr inbounds nuw i8, ptr %6, i64 16
  %13 = load i32, ptr %12, align 4, !tbaa !17
  store i32 %13, ptr %4, align 4, !tbaa !17
  br label %14

14:                                               ; preds = %9, %8
  %.0 = phi i32 [ 1, %8 ], [ 0, %9 ]
  ret i32 %.0
}